; Function Attrs: mustprogress nounwind uwtable
define void @_ZN10GPUProgramD2Ev(ptr noundef nonnull align 8 dereferenceable(188) %0) unnamed_addr #4 align 2 personality ptr @__gxx_personality_v0 {
  %2 = load ptr, ptr %0, align 8
  %.not.i = icmp eq ptr %2, null
  br i1 %.not.i, label %.noexc, label %3

3:                                                ; preds = %1
  %4 = load ptr, ptr @__glewDetachShader, align 8
  %5 = getelementptr inbounds nuw i8, ptr %0, i64 24
  %6 = load i32, ptr %5, align 8
  %7 = getelementptr inbounds nuw i8, ptr %2, i64 36
  %8 = load i32, ptr %7, align 4
  invoke void %4(i32 noundef %6, i32 noundef %8)
          to label %.noexc unwind label %56

.noexc:                                           ; preds = %3, %1
  %9 = getelementptr inbounds nuw i8, ptr %0, i64 8
  %10 = load ptr, ptr %9, align 8
  %.not3.i = icmp eq ptr %10, null
  br i1 %.not3.i, label %.noexc5, label %11

11:                                               ; preds = %.noexc
  %12 = load ptr, ptr @__glewDetachShader, align 8
  %13 = getelementptr inbounds nuw i8, ptr %0, i64 24
  %14 = load i32, ptr %13, align 8
  %15 = getelementptr inbounds nuw i8, ptr %10, i64 36
  %16 = load i32, ptr %15, align 4
  invoke void %12(i32 noundef %14, i32 noundef %16)
          to label %.noexc5 unwind label %56

.noexc5:                                          ; preds = %11, %.noexc
  %17 = getelementptr inbounds nuw i8, ptr %0, i64 16
  %18 = load ptr, ptr %17, align 8
  %.not4.i = icmp eq ptr %18, null
  br i1 %.not4.i, label %_ZN10GPUProgram6detachEv.exit, label %19

19:                                               ; preds = %.noexc5
  %20 = load ptr, ptr @__glewDetachShader, align 8
  %21 = getelementptr inbounds nuw i8, ptr %0, i64 24
  %22 = load i32, ptr %21, align 8
  %23 = getelementptr inbounds nuw i8, ptr %18, i64 36
  %24 = load i32, ptr %23, align 4
  invoke void %20(i32 noundef %22, i32 noundef %24)
          to label %_ZN10GPUProgram6detachEv.exit unwind label %56

_ZN10GPUProgram6detachEv.exit:                    ; preds = %.noexc5, %19
  %25 = load ptr, ptr %0, align 8
  %.not = icmp eq ptr %25, null
  br i1 %.not, label %27, label %26

26:                                               ; preds = %_ZN10GPUProgram6detachEv.exit
  tail call void @_ZN9GPUShaderD1Ev(ptr noundef nonnull align 8 dereferenceable(42) %25) #13
  tail call void @_ZdlPv(ptr noundef nonnull %25) #15
  br label %27

27:                                               ; preds = %26, %_ZN10GPUProgram6detachEv.exit
  %28 = load ptr, ptr %9, align 8
  %.not3 = icmp eq ptr %28, null
  br i1 %.not3, label %30, label %29

29:                                               ; preds = %27
  tail call void @_ZN9GPUShaderD1Ev(ptr noundef nonnull align 8 dereferenceable(42) %28) #13
  tail call void @_ZdlPv(ptr noundef nonnull %28) #15
  br label %30

30:                                               ; preds = %29, %27
  %31 = load ptr, ptr %17, align 8
  %.not4 = icmp eq ptr %31, null
  br i1 %.not4, label %33, label %32

32:                                               ; preds = %30
  tail call void @_ZN9GPUShaderD1Ev(ptr noundef nonnull align 8 dereferenceable(42) %31) #13
  tail call void @_ZdlPv(ptr noundef nonnull %31) #15
  br label %33

33:                                               ; preds = %32, %30
  %34 = load ptr, ptr @__glewDeleteProgram, align 8
  %35 = getelementptr inbounds nuw i8, ptr %0, i64 24
  %36 = load i32, ptr %35, align 8
  invoke void %34(i32 noundef %36)
          to label %37 unwind label %56

37:                                               ; preds = %33
  %38 = getelementptr inbounds nuw i8, ptr %0, i64 128
  %39 = getelementptr inbounds nuw i8, ptr %0, i64 144
  %40 = load ptr, ptr %39, align 8
  invoke void @_ZNSt8_Rb_treeIjSt4pairIKjS0_IjjEESt10_Select1stIS3_ESt4lessIjESaIS3_EE8_M_eraseEPSt13_Rb_tree_nodeIS3_E(ptr noundef nonnull align 8 dereferenceable(48) %38, ptr noundef %40)
          to label %_ZNSt3mapIjSt4pairIjjESt4lessIjESaIS0_IKjS1_EEED2Ev.exit unwind label %41

41:                                               ; preds = %37
  %42 = landingpad { ptr, i32 }
          catch ptr null
  %43 = extractvalue { ptr, i32 } %42, 0
  tail call void @__clang_call_terminate(ptr %43) #14
  unreachable

_ZNSt3mapIjSt4pairIjjESt4lessIjESaIS0_IKjS1_EEED2Ev.exit: ; preds = %37
  %44 = getelementptr inbounds nuw i8, ptr %0, i64 80
  %45 = getelementptr inbounds nuw i8, ptr %0, i64 96
  %46 = load ptr, ptr %45, align 8
  invoke void @_ZNSt8_Rb_treeINSt7__cxx1112basic_stringIcSt11char_traitsIcESaIcEEESt4pairIKS5_iESt10_Select1stIS8_ESt4lessIS5_ESaIS8_EE8_M_eraseEPSt13_Rb_tree_nodeIS8_E(ptr noundef nonnull align 8 dereferenceable(48) %44, ptr noundef %46)
          to label %_ZNSt3mapINSt7__cxx1112basic_stringIcSt11char_traitsIcESaIcEEEiSt4lessIS5_ESaISt4pairIKS5_iEEED2Ev.exit unwind label %47

47:                                               ; preds = %_ZNSt3mapIjSt4pairIjjESt4lessIjESaIS0_IKjS1_EEED2Ev.exit
  %48 = landingpad { ptr, i32 }
          catch ptr null
  %49 = extractvalue { ptr, i32 } %48, 0
  tail call void @__clang_call_terminate(ptr %49) #14
  unreachable

_ZNSt3mapINSt7__cxx1112basic_stringIcSt11char_traitsIcESaIcEEEiSt4lessIS5_ESaISt4pairIKS5_iEEED2Ev.exit: ; preds = %_ZNSt3mapIjSt4pairIjjESt4lessIjESaIS0_IKjS1_EEED2Ev.exit
  %50 = getelementptr inbounds nuw i8, ptr %0, i64 32
  %51 = getelementptr inbounds nuw i8, ptr %0, i64 48
  %52 = load ptr, ptr %51, align 8
  invoke void @_ZNSt8_Rb_treeINSt7__cxx1112basic_stringIcSt11char_traitsIcESaIcEEESt4pairIKS5_iESt10_Select1stIS8_ESt4lessIS5_ESaIS8_EE8_M_eraseEPSt13_Rb_tree_nodeIS8_E(ptr noundef nonnull align 8 dereferenceable(48) %50, ptr noundef %52)
          to label %_ZNSt3mapINSt7__cxx1112basic_stringIcSt11char_traitsIcESaIcEEEiSt4lessIS5_ESaISt4pairIKS5_iEEED2Ev.exit7 unwind label %53

53:                                               ; preds = %_ZNSt3mapINSt7__cxx1112basic_stringIcSt11char_traitsIcESaIcEEEiSt4lessIS5_ESaISt4pairIKS5_iEEED2Ev.exit
  %54 = landingpad { ptr, i32 }
          catch ptr null
  %55 = extractvalue { ptr, i32 } %54, 0
  tail call void @__clang_call_terminate(ptr %55) #14
  unreachable

_ZNSt3mapINSt7__cxx1112basic_stringIcSt11char_traitsIcESaIcEEEiSt4lessIS5_ESaISt4pairIKS5_iEEED2Ev.exit7: ; preds = %_ZNSt3mapINSt7__cxx1112basic_stringIcSt11char_traitsIcESaIcEEEiSt4lessIS5_ESaISt4pairIKS5_iEEED2Ev.exit
  ret void

56:                                               ; preds = %19, %11, %3, %33
  %57 = landingpad { ptr, i32 }
          catch ptr null
  %58 = extractvalue { ptr, i32 } %57, 0
  tail call void @__clang_call_terminate(ptr %58) #14
  unreachable
}